; Function Attrs: nounwind uwtable
define internal ptr @compactlong_float_multiply(ptr noundef readonly captures(none) %0, ptr noundef %1) #3 {
  %3 = tail call double @PyFloat_AsDouble(ptr noundef %1) #9
  %4 = getelementptr i8, ptr %0, i64 16
  %.val = load i64, ptr %4, align 8, !tbaa !153
  %5 = getelementptr i8, ptr %0, i64 24
  %.val3 = load i32, ptr %5, align 8, !tbaa !47
  %6 = and i64 %.val, 3
  %7 = sub nsw i64 1, %6
  %8 = zext i32 %.val3 to i64
  %9 = mul nsw i64 %7, %8
  %10 = sitofp i64 %9 to double
  %11 = fmul double %3, %10
  %12 = tail call ptr @PyFloat_FromDouble(double noundef %11) #9
  ret ptr %12
}